target datalayout = "e-m:e-p270:32:32-p271:32:32-p272:64:64-i64:64-i128:128-f80:128-n8:16:32:64-S128"
target triple = "x86_64-pc-linux-gnu"

@.str = private unnamed_addr constant [35 x i8] c"../openssl/crypto/rand/prov_seed.c\00", align 1
@__func__.ossl_rand_get_entropy = private unnamed_addr constant [22 x i8] c"ossl_rand_get_entropy\00", align 1

; Function Attrs: nounwind uwtable
define i64 @ossl_rand_get_entropy(ptr noundef %0, ptr noundef %1, i32 noundef %2, i64 noundef %3, i64 noundef %4) #0 {
  %6 = alloca i64, align 8
  %7 = alloca ptr, align 8
  %8 = alloca ptr, align 8
  %9 = alloca i32, align 4
  %10 = alloca i64, align 8
  %11 = alloca i64, align 8
  %12 = alloca i64, align 8
  %13 = alloca i64, align 8
  %14 = alloca ptr, align 8
  %15 = alloca i32, align 4
  store ptr %0, ptr %7, align 8, !tbaa !3
  store ptr %1, ptr %8, align 8, !tbaa !8
  store i32 %2, ptr %9, align 4, !tbaa !10
  store i64 %3, ptr %10, align 8, !tbaa !12
  store i64 %4, ptr %11, align 8, !tbaa !12
  call void @llvm.lifetime.start.p0(i64 8, ptr %12) #3
  store i64 0, ptr %12, align 8, !tbaa !12
  call void @llvm.lifetime.start.p0(i64 8, ptr %13) #3
  call void @llvm.lifetime.start.p0(i64 8, ptr %14) #3
  %16 = load i32, ptr %9, align 4, !tbaa !10
  %17 = load i64, ptr %10, align 8, !tbaa !12
  %18 = load i64, ptr %11, align 8, !tbaa !12
  %19 = call ptr @ossl_rand_pool_new(i32 noundef %16, i32 noundef 1, i64 noundef %17, i64 noundef %18)
  store ptr %19, ptr %14, align 8, !tbaa !14
  %20 = load ptr, ptr %14, align 8, !tbaa !14
  %21 = icmp eq ptr %20, null
  br i1 %21, label %22, label %23

22:                                               ; preds = %5
  call void @ERR_new()
  call void @ERR_set_debug(ptr noundef @.str, i32 noundef 28, ptr noundef @__func__.ossl_rand_get_entropy)
  call void (i32, i32, ptr, ...) @ERR_set_error(i32 noundef 36, i32 noundef 524324, ptr noundef null)
  store i64 0, ptr %6, align 8
  store i32 1, ptr %15, align 4
  br label %37

23:                                               ; preds = %5
  %24 = load ptr, ptr %14, align 8, !tbaa !14
  %25 = call i64 @ossl_pool_acquire_entropy(ptr noundef %24)
  store i64 %25, ptr %13, align 8, !tbaa !12
  %26 = load i64, ptr %13, align 8, !tbaa !12
  %27 = icmp ugt i64 %26, 0
  br i1 %27, label %28, label %34

28:                                               ; preds = %23
  %29 = load ptr, ptr %14, align 8, !tbaa !14
  %30 = call i64 @ossl_rand_pool_length(ptr noundef %29)
  store i64 %30, ptr %12, align 8, !tbaa !12
  %31 = load ptr, ptr %14, align 8, !tbaa !14
  %32 = call ptr @ossl_rand_pool_detach(ptr noundef %31)
  %33 = load ptr, ptr %8, align 8, !tbaa !8
  store ptr %32, ptr %33, align 8, !tbaa !16
  br label %34

34:                                               ; preds = %28, %23
  %35 = load ptr, ptr %14, align 8, !tbaa !14
  call void @ossl_rand_pool_free(ptr noundef %35)
  %36 = load i64, ptr %12, align 8, !tbaa !12
  store i64 %36, ptr %6, align 8
  store i32 1, ptr %15, align 4
  br label %37

37:                                               ; preds = %34, %22
  call void @llvm.lifetime.end.p0(i64 8, ptr %14) #3
  call void @llvm.lifetime.end.p0(i64 8, ptr %13) #3
  call void @llvm.lifetime.end.p0(i64 8, ptr %12) #3
  %38 = load i64, ptr %6, align 8
  ret i64 %38
}