; Function Attrs: nounwind uwtable
define i64 @ossl_rand_get_entropy(ptr readnone captures(none) %0, ptr noundef writeonly captures(none) %1, i32 noundef %2, i64 noundef %3, i64 noundef %4) local_unnamed_addr #0 {
  %6 = tail call ptr @ossl_rand_pool_new(i32 noundef %2, i32 noundef 1, i64 noundef %3, i64 noundef %4) #2
  %7 = icmp eq ptr %6, null
  br i1 %7, label %8, label %9

8:                                                ; preds = %5
  tail call void @ERR_new() #2
  tail call void @ERR_set_debug(ptr noundef nonnull @.str, i32 noundef 28, ptr noundef nonnull @__func__.ossl_rand_get_entropy) #2
  tail call void (i32, i32, ptr, ...) @ERR_set_error(i32 noundef 36, i32 noundef 524324, ptr noundef null) #2
  br label %15

9:                                                ; preds = %5
  %10 = tail call i64 @ossl_pool_acquire_entropy(ptr noundef nonnull %6) #2
  %.not = icmp eq i64 %10, 0
  br i1 %.not, label %14, label %11

11:                                               ; preds = %9
  %12 = tail call i64 @ossl_rand_pool_length(ptr noundef nonnull %6) #2
  %13 = tail call ptr @ossl_rand_pool_detach(ptr noundef nonnull %6) #2
  store ptr %13, ptr %1, align 8, !tbaa !3
  br label %14

14:                                               ; preds = %11, %9
  %.011 = phi i64 [ %12, %11 ], [ 0, %9 ]
  tail call void @ossl_rand_pool_free(ptr noundef nonnull %6) #2
  br label %15

15:                                               ; preds = %14, %8
  %.0 = phi i64 [ 0, %8 ], [ %.011, %14 ]
  ret i64 %.0
}